target datalayout = "e-m:e-p270:32:32-p271:32:32-p272:64:64-i64:64-i128:128-f80:128-n8:16:32:64-S128"
target triple = "x86_64-pc-linux-gnu"

%struct._PyRWMutex = type { i64 }

; Function Attrs: inlinehint nounwind uwtable
define internal i64 @_Py_atomic_exchange_uintptr(ptr noundef %0, i64 noundef %1) #2 {
  %3 = alloca ptr, align 8
  %4 = alloca i64, align 8
  %5 = alloca i64, align 8
  %6 = alloca i64, align 8
  store ptr %0, ptr %3, align 8, !tbaa !30
  store i64 %1, ptr %4, align 8, !tbaa !9
  %7 = load ptr, ptr %3, align 8, !tbaa !30
  %8 = load i64, ptr %4, align 8, !tbaa !9
  store i64 %8, ptr %5, align 8, !tbaa !9
  %9 = load i64, ptr %5, align 8
  %10 = atomicrmw xchg ptr %7, i64 %9 seq_cst, align 8
  store i64 %10, ptr %6, align 8
  %11 = load i64, ptr %6, align 8, !tbaa !9
  ret i64 %11
}

; Function Attrs: nounwind uwtable
define dso_local void @_PyRWMutex_Unlock(ptr noundef %0) #0 {
  %2 = alloca ptr, align 8
  %3 = alloca i64, align 8
  store ptr %0, ptr %2, align 8, !tbaa !25
  call void @llvm.lifetime.start.p0(i64 8, ptr %3) #7
  %4 = load ptr, ptr %2, align 8, !tbaa !25
  %5 = getelementptr inbounds nuw %struct._PyRWMutex, ptr %4, i32 0, i32 0
  %6 = call i64 @_Py_atomic_exchange_uintptr(ptr noundef %5, i64 noundef 0)
  store i64 %6, ptr %3, align 8, !tbaa !9
  %7 = load i64, ptr %3, align 8, !tbaa !9
  %8 = and i64 %7, 2
  %9 = icmp ne i64 %8, 0
  br i1 %9, label %10, label %13

10:                                               ; preds = %1
  %11 = load ptr, ptr %2, align 8, !tbaa !25
  %12 = getelementptr inbounds nuw %struct._PyRWMutex, ptr %11, i32 0, i32 0
  call void @_PyParkingLot_UnparkAll(ptr noundef %12)
  br label %13

13:                                               ; preds = %10, %1
  call void @llvm.lifetime.end.p0(i64 8, ptr %3) #7
  ret void
}