; Function Attrs: nounwind uwtable
define dso_local void @_PyRWMutex_Unlock(ptr noundef %0) local_unnamed_addr #0 {
  %2 = atomicrmw xchg ptr %0, i64 0 seq_cst, align 8
  %3 = and i64 %2, 2
  %.not = icmp eq i64 %3, 0
  br i1 %.not, label %5, label %4

4:                                                ; preds = %1
  tail call void @_PyParkingLot_UnparkAll(ptr noundef %0) #8
  br label %5

5:                                                ; preds = %4, %1
  ret void
}